target datalayout = "e-m:e-p270:32:32-p271:32:32-p272:64:64-i64:64-i128:128-f80:128-n8:16:32:64-S128"
target triple = "x86_64-pc-linux-gnu"

@libctx = internal global ptr null, align 8
@.str.14 = private unnamed_addr constant [30 x i8] c"../openssl/test/quicapitest.c\00", align 1
@cert = internal global ptr null, align 8
@privkey = internal global ptr null, align 8
@.str.62 = private unnamed_addr constant [5 x i8] c"cctx\00", align 1
@.str.67 = private unnamed_addr constant [49 x i8] c"qtest_create_quic_connection(qtserv, clientquic)\00", align 1
@.str.121 = private unnamed_addr constant [98 x i8] c"qtest_create_quic_objects(libctx, cctx, NULL, cert, privkey, 0, &qtserv, &clientquic, NULL, NULL)\00", align 1
@.str.122 = private unnamed_addr constant [24 x i8] c"SSL_version(clientquic)\00", align 1
@.str.123 = private unnamed_addr constant [19 x i8] c"OSSL_QUIC1_VERSION\00", align 1
@.str.124 = private unnamed_addr constant [28 x i8] c"SSL_get_version(clientquic)\00", align 1
@.str.125 = private unnamed_addr constant [9 x i8] c"\22QUICv1\22\00", align 1
@.str.126 = private unnamed_addr constant [7 x i8] c"QUICv1\00", align 1
@.str.127 = private unnamed_addr constant [24 x i8] c"SSL_is_quic(clientquic)\00", align 1
@.str.128 = private unnamed_addr constant [23 x i8] c"SSL_is_tls(clientquic)\00", align 1
@.str.129 = private unnamed_addr constant [24 x i8] c"SSL_is_dtls(clientquic)\00", align 1

; Function Attrs: nounwind uwtable
define internal i32 @test_version() #0 {
  %1 = alloca ptr, align 8
  %2 = alloca ptr, align 8
  %3 = alloca ptr, align 8
  %4 = alloca i32, align 4
  call void @llvm.lifetime.start.p0(i64 8, ptr %1) #8
  %5 = load ptr, ptr @libctx, align 8, !tbaa !4
  %6 = call ptr @OSSL_QUIC_client_method()
  %7 = call ptr @SSL_CTX_new_ex(ptr noundef %5, ptr noundef null, ptr noundef %6)
  store ptr %7, ptr %1, align 8, !tbaa !15
  call void @llvm.lifetime.start.p0(i64 8, ptr %2) #8
  store ptr null, ptr %2, align 8, !tbaa !17
  call void @llvm.lifetime.start.p0(i64 8, ptr %3) #8
  store ptr null, ptr %3, align 8, !tbaa !19
  call void @llvm.lifetime.start.p0(i64 4, ptr %4) #8
  store i32 0, ptr %4, align 4, !tbaa !13
  %8 = load ptr, ptr %1, align 8, !tbaa !15
  %9 = call i32 @test_ptr(ptr noundef @.str.14, i32 noundef 404, ptr noundef @.str.62, ptr noundef %8)
  %10 = icmp ne i32 %9, 0
  br i1 %10, label %11, label %29

11:                                               ; preds = %0
  %12 = load ptr, ptr @libctx, align 8, !tbaa !4
  %13 = load ptr, ptr %1, align 8, !tbaa !15
  %14 = load ptr, ptr @cert, align 8, !tbaa !11
  %15 = load ptr, ptr @privkey, align 8, !tbaa !11
  %16 = call i32 @qtest_create_quic_objects(ptr noundef %12, ptr noundef %13, ptr noundef null, ptr noundef %14, ptr noundef %15, i32 noundef 0, ptr noundef %3, ptr noundef %2, ptr noundef null, ptr noundef null)
  %17 = icmp ne i32 %16, 0
  %18 = zext i1 %17 to i32
  %19 = call i32 @test_true(ptr noundef @.str.14, i32 noundef 407, ptr noundef @.str.121, i32 noundef %18)
  %20 = icmp ne i32 %19, 0
  br i1 %20, label %21, label %29

21:                                               ; preds = %11
  %22 = load ptr, ptr %3, align 8, !tbaa !19
  %23 = load ptr, ptr %2, align 8, !tbaa !17
  %24 = call i32 @qtest_create_quic_connection(ptr noundef %22, ptr noundef %23)
  %25 = icmp ne i32 %24, 0
  %26 = zext i1 %25 to i32
  %27 = call i32 @test_true(ptr noundef @.str.14, i32 noundef 408, ptr noundef @.str.67, i32 noundef %26)
  %28 = icmp ne i32 %27, 0
  br i1 %28, label %30, label %29

29:                                               ; preds = %21, %11, %0
  br label %64

30:                                               ; preds = %21
  %31 = load ptr, ptr %2, align 8, !tbaa !17
  %32 = call i32 @SSL_version(ptr noundef %31)
  %33 = call i32 @test_int_eq(ptr noundef @.str.14, i32 noundef 411, ptr noundef @.str.122, ptr noundef @.str.123, i32 noundef %32, i32 noundef 1)
  %34 = icmp ne i32 %33, 0
  br i1 %34, label %35, label %40

35:                                               ; preds = %30
  %36 = load ptr, ptr %2, align 8, !tbaa !17
  %37 = call ptr @SSL_get_version(ptr noundef %36)
  %38 = call i32 @test_str_eq(ptr noundef @.str.14, i32 noundef 412, ptr noundef @.str.124, ptr noundef @.str.125, ptr noundef %37, ptr noundef @.str.126)
  %39 = icmp ne i32 %38, 0
  br i1 %39, label %41, label %40

40:                                               ; preds = %35, %30
  br label %64

41:                                               ; preds = %35
  %42 = load ptr, ptr %2, align 8, !tbaa !17
  %43 = call i32 @SSL_is_quic(ptr noundef %42)
  %44 = icmp ne i32 %43, 0
  %45 = zext i1 %44 to i32
  %46 = call i32 @test_true(ptr noundef @.str.14, i32 noundef 415, ptr noundef @.str.127, i32 noundef %45)
  %47 = icmp ne i32 %46, 0
  br i1 %47, label %48, label %62

48:                                               ; preds = %41
  %49 = load ptr, ptr %2, align 8, !tbaa !17
  %50 = call i32 @SSL_is_tls(ptr noundef %49)
  %51 = icmp ne i32 %50, 0
  %52 = zext i1 %51 to i32
  %53 = call i32 @test_false(ptr noundef @.str.14, i32 noundef 416, ptr noundef @.str.128, i32 noundef %52)
  %54 = icmp ne i32 %53, 0
  br i1 %54, label %55, label %62

55:                                               ; preds = %48
  %56 = load ptr, ptr %2, align 8, !tbaa !17
  %57 = call i32 @SSL_is_dtls(ptr noundef %56)
  %58 = icmp ne i32 %57, 0
  %59 = zext i1 %58 to i32
  %60 = call i32 @test_false(ptr noundef @.str.14, i32 noundef 417, ptr noundef @.str.129, i32 noundef %59)
  %61 = icmp ne i32 %60, 0
  br i1 %61, label %63, label %62

62:                                               ; preds = %55, %48, %41
  br label %64

63:                                               ; preds = %55
  store i32 1, ptr %4, align 4, !tbaa !13
  br label %64

64:                                               ; preds = %63, %62, %40, %29
  %65 = load ptr, ptr %3, align 8, !tbaa !19
  call void @ossl_quic_tserver_free(ptr noundef %65)
  %66 = load ptr, ptr %2, align 8, !tbaa !17
  call void @SSL_free(ptr noundef %66)
  %67 = load ptr, ptr %1, align 8, !tbaa !15
  call void @SSL_CTX_free(ptr noundef %67)
  %68 = load i32, ptr %4, align 4, !tbaa !13
  call void @llvm.lifetime.end.p0(i64 4, ptr %4) #8
  call void @llvm.lifetime.end.p0(i64 8, ptr %3) #8
  call void @llvm.lifetime.end.p0(i64 8, ptr %2) #8
  call void @llvm.lifetime.end.p0(i64 8, ptr %1) #8
  ret i32 %68
}