; Function Attrs: nounwind uwtable
define internal range(i32 0, 2) i32 @test_version() #1 {
  %1 = alloca ptr, align 8
  %2 = alloca ptr, align 8
  %3 = load ptr, ptr @libctx, align 8, !tbaa !4
  %4 = tail call ptr @OSSL_QUIC_client_method() #10
  %5 = tail call ptr @SSL_CTX_new_ex(ptr noundef %3, ptr noundef null, ptr noundef %4) #10
  call void @llvm.lifetime.start.p0(i64 8, ptr nonnull %1) #10
  store ptr null, ptr %1, align 8, !tbaa !13
  call void @llvm.lifetime.start.p0(i64 8, ptr nonnull %2) #10
  store ptr null, ptr %2, align 8, !tbaa !15
  %6 = tail call i32 @test_ptr(ptr noundef nonnull @.str.14, i32 noundef 404, ptr noundef nonnull @.str.62, ptr noundef %5) #10
  %.not = icmp eq i32 %6, 0
  br i1 %.not, label %48, label %7

7:                                                ; preds = %0
  %8 = load ptr, ptr @libctx, align 8, !tbaa !4
  %9 = load ptr, ptr @cert, align 8, !tbaa !11
  %10 = load ptr, ptr @privkey, align 8, !tbaa !11
  %11 = call i32 @qtest_create_quic_objects(ptr noundef %8, ptr noundef %5, ptr noundef null, ptr noundef %9, ptr noundef %10, i32 noundef 0, ptr noundef nonnull %2, ptr noundef nonnull %1, ptr noundef null, ptr noundef null) #10
  %12 = icmp ne i32 %11, 0
  %13 = zext i1 %12 to i32
  %14 = call i32 @test_true(ptr noundef nonnull @.str.14, i32 noundef 407, ptr noundef nonnull @.str.121, i32 noundef %13) #10
  %.not3 = icmp eq i32 %14, 0
  br i1 %.not3, label %48, label %15

15:                                               ; preds = %7
  %16 = load ptr, ptr %2, align 8, !tbaa !15
  %17 = load ptr, ptr %1, align 8, !tbaa !13
  %18 = call i32 @qtest_create_quic_connection(ptr noundef %16, ptr noundef %17) #10
  %19 = icmp ne i32 %18, 0
  %20 = zext i1 %19 to i32
  %21 = call i32 @test_true(ptr noundef nonnull @.str.14, i32 noundef 408, ptr noundef nonnull @.str.67, i32 noundef %20) #10
  %.not4 = icmp eq i32 %21, 0
  br i1 %.not4, label %48, label %22

22:                                               ; preds = %15
  %23 = load ptr, ptr %1, align 8, !tbaa !13
  %24 = call i32 @SSL_version(ptr noundef %23) #10
  %25 = call i32 @test_int_eq(ptr noundef nonnull @.str.14, i32 noundef 411, ptr noundef nonnull @.str.122, ptr noundef nonnull @.str.123, i32 noundef %24, i32 noundef 1) #10
  %.not5 = icmp eq i32 %25, 0
  br i1 %.not5, label %48, label %26

26:                                               ; preds = %22
  %27 = load ptr, ptr %1, align 8, !tbaa !13
  %28 = call ptr @SSL_get_version(ptr noundef %27) #10
  %29 = call i32 @test_str_eq(ptr noundef nonnull @.str.14, i32 noundef 412, ptr noundef nonnull @.str.124, ptr noundef nonnull @.str.125, ptr noundef %28, ptr noundef nonnull @.str.126) #10
  %.not6 = icmp eq i32 %29, 0
  br i1 %.not6, label %48, label %30

30:                                               ; preds = %26
  %31 = load ptr, ptr %1, align 8, !tbaa !13
  %32 = call i32 @SSL_is_quic(ptr noundef %31) #10
  %33 = icmp ne i32 %32, 0
  %34 = zext i1 %33 to i32
  %35 = call i32 @test_true(ptr noundef nonnull @.str.14, i32 noundef 415, ptr noundef nonnull @.str.127, i32 noundef %34) #10
  %.not7 = icmp eq i32 %35, 0
  br i1 %.not7, label %48, label %36

36:                                               ; preds = %30
  %37 = load ptr, ptr %1, align 8, !tbaa !13
  %38 = call i32 @SSL_is_tls(ptr noundef %37) #10
  %39 = icmp ne i32 %38, 0
  %40 = zext i1 %39 to i32
  %41 = call i32 @test_false(ptr noundef nonnull @.str.14, i32 noundef 416, ptr noundef nonnull @.str.128, i32 noundef %40) #10
  %.not8 = icmp eq i32 %41, 0
  br i1 %.not8, label %48, label %42

42:                                               ; preds = %36
  %43 = load ptr, ptr %1, align 8, !tbaa !13
  %44 = call i32 @SSL_is_dtls(ptr noundef %43) #10
  %45 = icmp ne i32 %44, 0
  %46 = zext i1 %45 to i32
  %47 = call i32 @test_false(ptr noundef nonnull @.str.14, i32 noundef 417, ptr noundef nonnull @.str.129, i32 noundef %46) #10
  %.not9 = icmp ne i32 %47, 0
  %spec.select = zext i1 %.not9 to i32
  br label %48

48:                                               ; preds = %42, %30, %36, %22, %26, %0, %7, %15
  %.0 = phi i32 [ 0, %36 ], [ 0, %30 ], [ 0, %26 ], [ 0, %22 ], [ 0, %15 ], [ 0, %7 ], [ 0, %0 ], [ %spec.select, %42 ]
  %49 = load ptr, ptr %2, align 8, !tbaa !15
  call void @ossl_quic_tserver_free(ptr noundef %49) #10
  %50 = load ptr, ptr %1, align 8, !tbaa !13
  call void @SSL_free(ptr noundef %50) #10
  call void @SSL_CTX_free(ptr noundef %5) #10
  call void @llvm.lifetime.end.p0(i64 8, ptr nonnull %2) #10
  call void @llvm.lifetime.end.p0(i64 8, ptr nonnull %1) #10
  ret i32 %.0
}